target datalayout = "e-m:e-p270:32:32-p271:32:32-p272:64:64-i64:64-i128:128-f80:128-n8:16:32:64-S128"
target triple = "x86_64-pc-linux-gnu"

%struct.ChannelParams = type { [2 x %struct.FilterParams], [2 x [8 x i32]], i16, i32, i8, i8 }
%struct.FilterParams = type { i8, i8, [8 x i32], i32, i32 }
%struct.PutBitContext = type { i32, i32, ptr, ptr, ptr }

@.str.32 = private unnamed_addr constant [43 x i8] c"Internal error, put_bits buffer too small\0A\00", align 1

; Function Attrs: alwaysinline nounwind willreturn memory(none) uwtable
define internal i32 @av_bswap32(i32 noundef %0) #7 {
  %2 = alloca i32, align 4
  store i32 %0, ptr %2, align 4, !tbaa !40
  %3 = load i32, ptr %2, align 4, !tbaa !40
  %4 = shl i32 %3, 8
  %5 = and i32 %4, 65280
  %6 = load i32, ptr %2, align 4, !tbaa !40
  %7 = lshr i32 %6, 8
  %8 = and i32 %7, 255
  %9 = or i32 %5, %8
  %10 = shl i32 %9, 16
  %11 = load i32, ptr %2, align 4, !tbaa !40
  %12 = lshr i32 %11, 16
  %13 = shl i32 %12, 8
  %14 = and i32 %13, 65280
  %15 = load i32, ptr %2, align 4, !tbaa !40
  %16 = lshr i32 %15, 16
  %17 = lshr i32 %16, 8
  %18 = and i32 %17, 255
  %19 = or i32 %14, %18
  %20 = or i32 %10, %19
  ret i32 %20
}

; Function Attrs: alwaysinline nounwind willreturn memory(none) uwtable
define internal i32 @av_zero_extend_c(i32 noundef %0, i32 noundef %1) #7 {
  %3 = alloca i32, align 4
  %4 = alloca i32, align 4
  store i32 %0, ptr %3, align 4, !tbaa !40
  store i32 %1, ptr %4, align 4, !tbaa !40
  %5 = load i32, ptr %3, align 4, !tbaa !40
  %6 = load i32, ptr %4, align 4, !tbaa !40
  %7 = shl i32 1, %6
  %8 = sub i32 %7, 1
  %9 = and i32 %5, %8
  ret i32 %9
}

; Function Attrs: inlinehint nounwind uwtable
define internal void @put_bits_no_assert(ptr noundef %0, i32 noundef %1, i32 noundef %2) #4 {
  %4 = alloca ptr, align 8
  %5 = alloca i32, align 4
  %6 = alloca i32, align 4
  %7 = alloca i32, align 4
  %8 = alloca i32, align 4
  store ptr %0, ptr %4, align 8, !tbaa !202
  store i32 %1, ptr %5, align 4, !tbaa !40
  store i32 %2, ptr %6, align 4, !tbaa !40
  call void @llvm.lifetime.start.p0(i64 4, ptr %7) #9
  call void @llvm.lifetime.start.p0(i64 4, ptr %8) #9
  %9 = load ptr, ptr %4, align 8, !tbaa !202
  %10 = getelementptr inbounds nuw %struct.PutBitContext, ptr %9, i32 0, i32 0
  %11 = load i32, ptr %10, align 8, !tbaa !209
  store i32 %11, ptr %7, align 4, !tbaa !40
  %12 = load ptr, ptr %4, align 8, !tbaa !202
  %13 = getelementptr inbounds nuw %struct.PutBitContext, ptr %12, i32 0, i32 1
  %14 = load i32, ptr %13, align 4, !tbaa !208
  store i32 %14, ptr %8, align 4, !tbaa !40
  %15 = load i32, ptr %5, align 4, !tbaa !40
  %16 = load i32, ptr %8, align 4, !tbaa !40
  %17 = icmp slt i32 %15, %16
  br i1 %17, label %18, label %27

18:                                               ; preds = %3
  %19 = load i32, ptr %7, align 4, !tbaa !40
  %20 = load i32, ptr %5, align 4, !tbaa !40
  %21 = shl i32 %19, %20
  %22 = load i32, ptr %6, align 4, !tbaa !40
  %23 = or i32 %21, %22
  store i32 %23, ptr %7, align 4, !tbaa !40
  %24 = load i32, ptr %5, align 4, !tbaa !40
  %25 = load i32, ptr %8, align 4, !tbaa !40
  %26 = sub nsw i32 %25, %24
  store i32 %26, ptr %8, align 4, !tbaa !40
  br label %65

27:                                               ; preds = %3
  %28 = load i32, ptr %8, align 4, !tbaa !40
  %29 = load i32, ptr %7, align 4, !tbaa !40
  %30 = shl i32 %29, %28
  store i32 %30, ptr %7, align 4, !tbaa !40
  %31 = load i32, ptr %6, align 4, !tbaa !40
  %32 = load i32, ptr %5, align 4, !tbaa !40
  %33 = load i32, ptr %8, align 4, !tbaa !40
  %34 = sub nsw i32 %32, %33
  %35 = lshr i32 %31, %34
  %36 = load i32, ptr %7, align 4, !tbaa !40
  %37 = or i32 %36, %35
  store i32 %37, ptr %7, align 4, !tbaa !40
  %38 = load ptr, ptr %4, align 8, !tbaa !202
  %39 = getelementptr inbounds nuw %struct.PutBitContext, ptr %38, i32 0, i32 4
  %40 = load ptr, ptr %39, align 8, !tbaa !206
  %41 = load ptr, ptr %4, align 8, !tbaa !202
  %42 = getelementptr inbounds nuw %struct.PutBitContext, ptr %41, i32 0, i32 3
  %43 = load ptr, ptr %42, align 8, !tbaa !207
  %44 = ptrtoint ptr %40 to i64
  %45 = ptrtoint ptr %43 to i64
  %46 = sub i64 %44, %45
  %47 = icmp uge i64 %46, 4
  br i1 %47, label %48, label %58

48:                                               ; preds = %27
  %49 = load i32, ptr %7, align 4, !tbaa !40
  %50 = call i32 @av_bswap32(i32 noundef %49) #10
  %51 = load ptr, ptr %4, align 8, !tbaa !202
  %52 = getelementptr inbounds nuw %struct.PutBitContext, ptr %51, i32 0, i32 3
  %53 = load ptr, ptr %52, align 8, !tbaa !207
  store i32 %50, ptr %53, align 1, !tbaa !134
  %54 = load ptr, ptr %4, align 8, !tbaa !202
  %55 = getelementptr inbounds nuw %struct.PutBitContext, ptr %54, i32 0, i32 3
  %56 = load ptr, ptr %55, align 8, !tbaa !207
  %57 = getelementptr inbounds nuw i8, ptr %56, i64 4
  store ptr %57, ptr %55, align 8, !tbaa !207
  br label %59

58:                                               ; preds = %27
  call void (ptr, i32, ptr, ...) @av_log(ptr noundef null, i32 noundef 16, ptr noundef @.str.32)
  br label %59

59:                                               ; preds = %58, %48
  %60 = load i32, ptr %5, align 4, !tbaa !40
  %61 = sub nsw i32 32, %60
  %62 = load i32, ptr %8, align 4, !tbaa !40
  %63 = add nsw i32 %62, %61
  store i32 %63, ptr %8, align 4, !tbaa !40
  %64 = load i32, ptr %6, align 4, !tbaa !40
  store i32 %64, ptr %7, align 4, !tbaa !40
  br label %65

65:                                               ; preds = %59, %18
  %66 = load i32, ptr %7, align 4, !tbaa !40
  %67 = load ptr, ptr %4, align 8, !tbaa !202
  %68 = getelementptr inbounds nuw %struct.PutBitContext, ptr %67, i32 0, i32 0
  store i32 %66, ptr %68, align 8, !tbaa !209
  %69 = load i32, ptr %8, align 4, !tbaa !40
  %70 = load ptr, ptr %4, align 8, !tbaa !202
  %71 = getelementptr inbounds nuw %struct.PutBitContext, ptr %70, i32 0, i32 1
  store i32 %69, ptr %71, align 4, !tbaa !208
  call void @llvm.lifetime.end.p0(i64 4, ptr %8) #9
  call void @llvm.lifetime.end.p0(i64 4, ptr %7) #9
  ret void
}

; Function Attrs: inlinehint nounwind uwtable
define internal void @put_sbits(ptr noundef %0, i32 noundef %1, i32 noundef %2) #4 {
  %4 = alloca ptr, align 8
  %5 = alloca i32, align 4
  %6 = alloca i32, align 4
  store ptr %0, ptr %4, align 8, !tbaa !202
  store i32 %1, ptr %5, align 4, !tbaa !40
  store i32 %2, ptr %6, align 4, !tbaa !40
  %7 = load ptr, ptr %4, align 8, !tbaa !202
  %8 = load i32, ptr %5, align 4, !tbaa !40
  %9 = load i32, ptr %6, align 4, !tbaa !40
  %10 = load i32, ptr %5, align 4, !tbaa !40
  %11 = call i32 @av_zero_extend_c(i32 noundef %9, i32 noundef %10) #10
  call void @put_bits(ptr noundef %7, i32 noundef %8, i32 noundef %11)
  ret void
}

; Function Attrs: inlinehint nounwind uwtable
define internal void @put_bits(ptr noundef %0, i32 noundef %1, i32 noundef %2) #4 {
  %4 = alloca ptr, align 8
  %5 = alloca i32, align 4
  %6 = alloca i32, align 4
  store ptr %0, ptr %4, align 8, !tbaa !202
  store i32 %1, ptr %5, align 4, !tbaa !40
  store i32 %2, ptr %6, align 4, !tbaa !40
  %7 = load ptr, ptr %4, align 8, !tbaa !202
  %8 = load i32, ptr %5, align 4, !tbaa !40
  %9 = load i32, ptr %6, align 4, !tbaa !40
  call void @put_bits_no_assert(ptr noundef %7, i32 noundef %8, i32 noundef %9)
  ret void
}

; Function Attrs: nounwind uwtable
define internal void @write_filter_params(ptr noundef %0, ptr noundef %1, ptr noundef %2, i32 noundef %3, i32 noundef %4) #1 {
  %6 = alloca ptr, align 8
  %7 = alloca ptr, align 8
  %8 = alloca ptr, align 8
  %9 = alloca i32, align 4
  %10 = alloca i32, align 4
  %11 = alloca ptr, align 8
  %12 = alloca ptr, align 8
  %13 = alloca i32, align 4
  store ptr %0, ptr %6, align 8, !tbaa !29
  store ptr %1, ptr %7, align 8, !tbaa !121
  store ptr %2, ptr %8, align 8, !tbaa !202
  store i32 %3, ptr %9, align 4, !tbaa !40
  store i32 %4, ptr %10, align 4, !tbaa !40
  call void @llvm.lifetime.start.p0(i64 8, ptr %11) #9
  %14 = load ptr, ptr %7, align 8, !tbaa !121
  %15 = getelementptr inbounds nuw %struct.ChannelParams, ptr %14, i32 0, i32 0
  %16 = load i32, ptr %10, align 4, !tbaa !40
  %17 = zext i32 %16 to i64
  %18 = getelementptr inbounds nuw [2 x %struct.FilterParams], ptr %15, i64 0, i64 %17
  store ptr %18, ptr %11, align 8, !tbaa !160
  %19 = load ptr, ptr %8, align 8, !tbaa !202
  %20 = load ptr, ptr %11, align 8, !tbaa !160
  %21 = getelementptr inbounds nuw %struct.FilterParams, ptr %20, i32 0, i32 0
  %22 = load i8, ptr %21, align 4, !tbaa !162
  %23 = zext i8 %22 to i32
  call void @put_bits(ptr noundef %19, i32 noundef 4, i32 noundef %23)
  %24 = load ptr, ptr %11, align 8, !tbaa !160
  %25 = getelementptr inbounds nuw %struct.FilterParams, ptr %24, i32 0, i32 0
  %26 = load i8, ptr %25, align 4, !tbaa !162
  %27 = zext i8 %26 to i32
  %28 = icmp sgt i32 %27, 0
  br i1 %28, label %29, label %76

29:                                               ; preds = %5
  call void @llvm.lifetime.start.p0(i64 8, ptr %12) #9
  %30 = load ptr, ptr %7, align 8, !tbaa !121
  %31 = getelementptr inbounds nuw %struct.ChannelParams, ptr %30, i32 0, i32 1
  %32 = load i32, ptr %10, align 4, !tbaa !40
  %33 = zext i32 %32 to i64
  %34 = getelementptr inbounds nuw [2 x [8 x i32]], ptr %31, i64 0, i64 %33
  %35 = getelementptr inbounds [8 x i32], ptr %34, i64 0, i64 0
  store ptr %35, ptr %12, align 8, !tbaa !88
  %36 = load ptr, ptr %8, align 8, !tbaa !202
  %37 = load ptr, ptr %11, align 8, !tbaa !160
  %38 = getelementptr inbounds nuw %struct.FilterParams, ptr %37, i32 0, i32 1
  %39 = load i8, ptr %38, align 1, !tbaa !164
  %40 = zext i8 %39 to i32
  call void @put_bits(ptr noundef %36, i32 noundef 4, i32 noundef %40)
  %41 = load ptr, ptr %8, align 8, !tbaa !202
  %42 = load ptr, ptr %11, align 8, !tbaa !160
  %43 = getelementptr inbounds nuw %struct.FilterParams, ptr %42, i32 0, i32 3
  %44 = load i32, ptr %43, align 4, !tbaa !193
  call void @put_bits(ptr noundef %41, i32 noundef 5, i32 noundef %44)
  %45 = load ptr, ptr %8, align 8, !tbaa !202
  %46 = load ptr, ptr %11, align 8, !tbaa !160
  %47 = getelementptr inbounds nuw %struct.FilterParams, ptr %46, i32 0, i32 4
  %48 = load i32, ptr %47, align 4, !tbaa !194
  call void @put_bits(ptr noundef %45, i32 noundef 3, i32 noundef %48)
  call void @llvm.lifetime.start.p0(i64 4, ptr %13) #9
  store i32 0, ptr %13, align 4, !tbaa !40
  br label %49

49:                                               ; preds = %71, %29
  %50 = load i32, ptr %13, align 4, !tbaa !40
  %51 = load ptr, ptr %11, align 8, !tbaa !160
  %52 = getelementptr inbounds nuw %struct.FilterParams, ptr %51, i32 0, i32 0
  %53 = load i8, ptr %52, align 4, !tbaa !162
  %54 = zext i8 %53 to i32
  %55 = icmp slt i32 %50, %54
  br i1 %55, label %57, label %56

56:                                               ; preds = %49
  call void @llvm.lifetime.end.p0(i64 4, ptr %13) #9
  br label %74

57:                                               ; preds = %49
  %58 = load ptr, ptr %8, align 8, !tbaa !202
  %59 = load ptr, ptr %11, align 8, !tbaa !160
  %60 = getelementptr inbounds nuw %struct.FilterParams, ptr %59, i32 0, i32 3
  %61 = load i32, ptr %60, align 4, !tbaa !193
  %62 = load ptr, ptr %12, align 8, !tbaa !88
  %63 = load i32, ptr %13, align 4, !tbaa !40
  %64 = sext i32 %63 to i64
  %65 = getelementptr inbounds i32, ptr %62, i64 %64
  %66 = load i32, ptr %65, align 4, !tbaa !40
  %67 = load ptr, ptr %11, align 8, !tbaa !160
  %68 = getelementptr inbounds nuw %struct.FilterParams, ptr %67, i32 0, i32 4
  %69 = load i32, ptr %68, align 4, !tbaa !194
  %70 = ashr i32 %66, %69
  call void @put_sbits(ptr noundef %58, i32 noundef %61, i32 noundef %70)
  br label %71

71:                                               ; preds = %57
  %72 = load i32, ptr %13, align 4, !tbaa !40
  %73 = add nsw i32 %72, 1
  store i32 %73, ptr %13, align 4, !tbaa !40
  br label %49, !llvm.loop !224

74:                                               ; preds = %56
  %75 = load ptr, ptr %8, align 8, !tbaa !202
  call void @put_bits(ptr noundef %75, i32 noundef 1, i32 noundef 0)
  call void @llvm.lifetime.end.p0(i64 8, ptr %12) #9
  br label %76

76:                                               ; preds = %74, %5
  call void @llvm.lifetime.end.p0(i64 8, ptr %11) #9
  ret void
}