; Function Attrs: nounwind uwtable
define internal fastcc void @write_filter_params(ptr noundef readonly captures(none) %0, ptr noundef nonnull captures(none) %1, i32 noundef range(i32 0, 2) %2) unnamed_addr #1 {
  %4 = zext nneg i32 %2 to i64
  %5 = getelementptr inbounds nuw [2 x %struct.FilterParams], ptr %0, i64 0, i64 %4
  %6 = load i8, ptr %5, align 4, !tbaa !111
  %7 = zext i8 %6 to i32
  %8 = load i32, ptr %1, align 8, !tbaa !139
  %9 = getelementptr inbounds nuw i8, ptr %1, i64 4
  %10 = load i32, ptr %9, align 4, !tbaa !136
  %11 = icmp sgt i32 %10, 4
  br i1 %11, label %12, label %16

12:                                               ; preds = %3
  %13 = shl i32 %8, 4
  %14 = or i32 %13, %7
  %15 = add nsw i32 %10, -4
  br label %put_bits.exit

16:                                               ; preds = %3
  %17 = getelementptr inbounds nuw i8, ptr %1, i64 24
  %18 = load ptr, ptr %17, align 8, !tbaa !134
  %19 = getelementptr inbounds nuw i8, ptr %1, i64 16
  %20 = load ptr, ptr %19, align 8, !tbaa !135
  %21 = ptrtoint ptr %18 to i64
  %22 = ptrtoint ptr %20 to i64
  %23 = sub i64 %21, %22
  %24 = icmp ugt i64 %23, 3
  br i1 %24, label %25, label %33

25:                                               ; preds = %16
  %26 = shl i32 %8, %10
  %27 = sub nsw i32 4, %10
  %28 = lshr i32 %7, %27
  %29 = or i32 %28, %26
  %30 = tail call i32 @llvm.bswap.i32(i32 %29)
  store i32 %30, ptr %20, align 1, !tbaa !95
  %31 = load ptr, ptr %19, align 8, !tbaa !135
  %32 = getelementptr inbounds nuw i8, ptr %31, i64 4
  store ptr %32, ptr %19, align 8, !tbaa !135
  br label %34

33:                                               ; preds = %16
  tail call void (ptr, i32, ptr, ...) @av_log(ptr noundef null, i32 noundef 16, ptr noundef nonnull @.str.32) #9
  br label %34

34:                                               ; preds = %33, %25
  %35 = add nsw i32 %10, 28
  %.pre = load i8, ptr %5, align 4, !tbaa !111
  br label %put_bits.exit

put_bits.exit:                                    ; preds = %12, %34
  %36 = phi i8 [ %6, %12 ], [ %.pre, %34 ]
  %.026.i.i = phi i32 [ %14, %12 ], [ %7, %34 ]
  %.0.i.i = phi i32 [ %15, %12 ], [ %35, %34 ]
  store i32 %.026.i.i, ptr %1, align 8, !tbaa !139
  store i32 %.0.i.i, ptr %9, align 4, !tbaa !136
  %.not = icmp eq i8 %36, 0
  br i1 %.not, label %177, label %37

37:                                               ; preds = %put_bits.exit
  %38 = getelementptr inbounds nuw i8, ptr %0, i64 88
  %39 = getelementptr inbounds nuw [2 x [8 x i32]], ptr %38, i64 0, i64 %4
  %40 = getelementptr inbounds nuw i8, ptr %5, i64 1
  %41 = load i8, ptr %40, align 1, !tbaa !113
  %42 = zext i8 %41 to i32
  %43 = icmp sgt i32 %.0.i.i, 4
  br i1 %43, label %44, label %47

44:                                               ; preds = %37
  %45 = shl i32 %.026.i.i, 4
  %46 = or i32 %45, %42
  br label %put_bits.exit24

47:                                               ; preds = %37
  %48 = getelementptr inbounds nuw i8, ptr %1, i64 24
  %49 = load ptr, ptr %48, align 8, !tbaa !134
  %50 = getelementptr inbounds nuw i8, ptr %1, i64 16
  %51 = load ptr, ptr %50, align 8, !tbaa !135
  %52 = ptrtoint ptr %49 to i64
  %53 = ptrtoint ptr %51 to i64
  %54 = sub i64 %52, %53
  %55 = icmp ugt i64 %54, 3
  br i1 %55, label %56, label %64

56:                                               ; preds = %47
  %57 = shl i32 %.026.i.i, %.0.i.i
  %58 = sub nsw i32 4, %.0.i.i
  %59 = lshr i32 %42, %58
  %60 = or i32 %59, %57
  %61 = tail call i32 @llvm.bswap.i32(i32 %60)
  store i32 %61, ptr %51, align 1, !tbaa !95
  %62 = load ptr, ptr %50, align 8, !tbaa !135
  %63 = getelementptr inbounds nuw i8, ptr %62, i64 4
  store ptr %63, ptr %50, align 8, !tbaa !135
  br label %put_bits.exit24

64:                                               ; preds = %47
  tail call void (ptr, i32, ptr, ...) @av_log(ptr noundef null, i32 noundef 16, ptr noundef nonnull @.str.32) #9
  br label %put_bits.exit24

put_bits.exit24:                                  ; preds = %56, %64, %44
  %.sink = phi i32 [ -4, %44 ], [ 28, %64 ], [ 28, %56 ]
  %.026.i.i22 = phi i32 [ %46, %44 ], [ %42, %64 ], [ %42, %56 ]
  %65 = add nsw i32 %.0.i.i, %.sink
  store i32 %.026.i.i22, ptr %1, align 8, !tbaa !139
  store i32 %65, ptr %9, align 4, !tbaa !136
  %66 = getelementptr inbounds nuw i8, ptr %5, i64 36
  %67 = load i32, ptr %66, align 4, !tbaa !208
  %68 = icmp sgt i32 %65, 5
  br i1 %68, label %69, label %72

69:                                               ; preds = %put_bits.exit24
  %70 = shl i32 %.026.i.i22, 5
  %71 = or i32 %67, %70
  br label %put_bits.exit28

72:                                               ; preds = %put_bits.exit24
  %73 = getelementptr inbounds nuw i8, ptr %1, i64 24
  %74 = load ptr, ptr %73, align 8, !tbaa !134
  %75 = getelementptr inbounds nuw i8, ptr %1, i64 16
  %76 = load ptr, ptr %75, align 8, !tbaa !135
  %77 = ptrtoint ptr %74 to i64
  %78 = ptrtoint ptr %76 to i64
  %79 = sub i64 %77, %78
  %80 = icmp ugt i64 %79, 3
  br i1 %80, label %81, label %89

81:                                               ; preds = %72
  %82 = shl i32 %.026.i.i22, %65
  %83 = sub nsw i32 5, %65
  %84 = lshr i32 %67, %83
  %85 = or i32 %84, %82
  %86 = tail call i32 @llvm.bswap.i32(i32 %85)
  store i32 %86, ptr %76, align 1, !tbaa !95
  %87 = load ptr, ptr %75, align 8, !tbaa !135
  %88 = getelementptr inbounds nuw i8, ptr %87, i64 4
  store ptr %88, ptr %75, align 8, !tbaa !135
  br label %put_bits.exit28

89:                                               ; preds = %72
  tail call void (ptr, i32, ptr, ...) @av_log(ptr noundef null, i32 noundef 16, ptr noundef nonnull @.str.32) #9
  br label %put_bits.exit28

put_bits.exit28:                                  ; preds = %81, %89, %69
  %.sink5 = phi i32 [ -5, %69 ], [ 27, %89 ], [ 27, %81 ]
  %.026.i.i26 = phi i32 [ %71, %69 ], [ %67, %89 ], [ %67, %81 ]
  %90 = add nsw i32 %65, %.sink5
  store i32 %.026.i.i26, ptr %1, align 8, !tbaa !139
  store i32 %90, ptr %9, align 4, !tbaa !136
  %91 = getelementptr inbounds nuw i8, ptr %5, i64 40
  %92 = load i32, ptr %91, align 4, !tbaa !209
  %93 = icmp sgt i32 %90, 3
  br i1 %93, label %94, label %97

94:                                               ; preds = %put_bits.exit28
  %95 = shl i32 %.026.i.i26, 3
  %96 = or i32 %92, %95
  br label %put_bits.exit32

97:                                               ; preds = %put_bits.exit28
  %98 = getelementptr inbounds nuw i8, ptr %1, i64 24
  %99 = load ptr, ptr %98, align 8, !tbaa !134
  %100 = getelementptr inbounds nuw i8, ptr %1, i64 16
  %101 = load ptr, ptr %100, align 8, !tbaa !135
  %102 = ptrtoint ptr %99 to i64
  %103 = ptrtoint ptr %101 to i64
  %104 = sub i64 %102, %103
  %105 = icmp ugt i64 %104, 3
  br i1 %105, label %106, label %114

106:                                              ; preds = %97
  %107 = shl i32 %.026.i.i26, %90
  %108 = sub nsw i32 3, %90
  %109 = lshr i32 %92, %108
  %110 = or i32 %109, %107
  %111 = tail call i32 @llvm.bswap.i32(i32 %110)
  store i32 %111, ptr %101, align 1, !tbaa !95
  %112 = load ptr, ptr %100, align 8, !tbaa !135
  %113 = getelementptr inbounds nuw i8, ptr %112, i64 4
  store ptr %113, ptr %100, align 8, !tbaa !135
  br label %put_bits.exit32

114:                                              ; preds = %97
  tail call void (ptr, i32, ptr, ...) @av_log(ptr noundef null, i32 noundef 16, ptr noundef nonnull @.str.32) #9
  br label %put_bits.exit32

put_bits.exit32:                                  ; preds = %106, %114, %94
  %.sink6 = phi i32 [ -3, %94 ], [ 29, %114 ], [ 29, %106 ]
  %.026.i.i30 = phi i32 [ %96, %94 ], [ %92, %114 ], [ %92, %106 ]
  %115 = add nsw i32 %90, %.sink6
  store i32 %.026.i.i30, ptr %1, align 8, !tbaa !139
  store i32 %115, ptr %9, align 4, !tbaa !136
  %116 = load i8, ptr %5, align 4, !tbaa !111
  %.not2 = icmp eq i8 %116, 0
  br i1 %.not2, label %._crit_edge, label %.lr.ph

.lr.ph:                                           ; preds = %put_bits.exit32
  %117 = getelementptr inbounds nuw i8, ptr %1, i64 24
  %118 = getelementptr inbounds nuw i8, ptr %1, i64 16
  br label %140

._crit_edge:                                      ; preds = %put_sbits.exit, %put_bits.exit32
  %119 = phi i32 [ %115, %put_bits.exit32 ], [ %.0.i.i.i, %put_sbits.exit ]
  %120 = phi i32 [ %.026.i.i30, %put_bits.exit32 ], [ %.026.i.i.i, %put_sbits.exit ]
  %121 = icmp sgt i32 %119, 1
  br i1 %121, label %122, label %124

122:                                              ; preds = %._crit_edge
  %123 = shl i32 %120, 1
  br label %put_bits.exit36

124:                                              ; preds = %._crit_edge
  %125 = getelementptr inbounds nuw i8, ptr %1, i64 24
  %126 = load ptr, ptr %125, align 8, !tbaa !134
  %127 = getelementptr inbounds nuw i8, ptr %1, i64 16
  %128 = load ptr, ptr %127, align 8, !tbaa !135
  %129 = ptrtoint ptr %126 to i64
  %130 = ptrtoint ptr %128 to i64
  %131 = sub i64 %129, %130
  %132 = icmp ugt i64 %131, 3
  br i1 %132, label %133, label %138

133:                                              ; preds = %124
  %134 = shl i32 %120, %119
  %135 = tail call i32 @llvm.bswap.i32(i32 %134)
  store i32 %135, ptr %128, align 1, !tbaa !95
  %136 = load ptr, ptr %127, align 8, !tbaa !135
  %137 = getelementptr inbounds nuw i8, ptr %136, i64 4
  store ptr %137, ptr %127, align 8, !tbaa !135
  br label %put_bits.exit36

138:                                              ; preds = %124
  tail call void (ptr, i32, ptr, ...) @av_log(ptr noundef null, i32 noundef 16, ptr noundef nonnull @.str.32) #9
  br label %put_bits.exit36

put_bits.exit36:                                  ; preds = %133, %138, %122
  %.sink7 = phi i32 [ -1, %122 ], [ 31, %138 ], [ 31, %133 ]
  %.026.i.i34 = phi i32 [ %123, %122 ], [ 0, %138 ], [ 0, %133 ]
  %139 = add nsw i32 %119, %.sink7
  store i32 %.026.i.i34, ptr %1, align 8, !tbaa !139
  store i32 %139, ptr %9, align 4, !tbaa !136
  br label %177

140:                                              ; preds = %.lr.ph, %put_sbits.exit
  %141 = phi i8 [ %116, %.lr.ph ], [ %174, %put_sbits.exit ]
  %142 = phi i32 [ %115, %.lr.ph ], [ %.0.i.i.i, %put_sbits.exit ]
  %143 = phi i32 [ %.026.i.i30, %.lr.ph ], [ %.026.i.i.i, %put_sbits.exit ]
  %indvars.iv = phi i64 [ 0, %.lr.ph ], [ %indvars.iv.next, %put_sbits.exit ]
  %144 = load i32, ptr %66, align 4, !tbaa !208
  %145 = getelementptr inbounds nuw i32, ptr %39, i64 %indvars.iv
  %146 = load i32, ptr %145, align 4, !tbaa !38
  %147 = load i32, ptr %91, align 4, !tbaa !209
  %148 = ashr i32 %146, %147
  %notmask.i.i = shl nsw i32 -1, %144
  %149 = xor i32 %notmask.i.i, -1
  %150 = and i32 %148, %149
  %151 = icmp slt i32 %144, %142
  br i1 %151, label %152, label %156

152:                                              ; preds = %140
  %153 = shl i32 %143, %144
  %154 = or i32 %153, %150
  %155 = sub nsw i32 %142, %144
  br label %put_sbits.exit

156:                                              ; preds = %140
  %157 = load ptr, ptr %117, align 8, !tbaa !134
  %158 = load ptr, ptr %118, align 8, !tbaa !135
  %159 = ptrtoint ptr %157 to i64
  %160 = ptrtoint ptr %158 to i64
  %161 = sub i64 %159, %160
  %162 = icmp ugt i64 %161, 3
  br i1 %162, label %163, label %171

163:                                              ; preds = %156
  %164 = shl i32 %143, %142
  %165 = sub nsw i32 %144, %142
  %166 = lshr i32 %150, %165
  %167 = or i32 %166, %164
  %168 = tail call i32 @llvm.bswap.i32(i32 %167)
  store i32 %168, ptr %158, align 1, !tbaa !95
  %169 = load ptr, ptr %118, align 8, !tbaa !135
  %170 = getelementptr inbounds nuw i8, ptr %169, i64 4
  store ptr %170, ptr %118, align 8, !tbaa !135
  br label %172

171:                                              ; preds = %156
  tail call void (ptr, i32, ptr, ...) @av_log(ptr noundef null, i32 noundef 16, ptr noundef nonnull @.str.32) #9
  br label %172

172:                                              ; preds = %171, %163
  %reass.sub = sub i32 %142, %144
  %173 = add i32 %reass.sub, 32
  %.pre4 = load i8, ptr %5, align 4, !tbaa !111
  br label %put_sbits.exit

put_sbits.exit:                                   ; preds = %152, %172
  %174 = phi i8 [ %141, %152 ], [ %.pre4, %172 ]
  %.026.i.i.i = phi i32 [ %154, %152 ], [ %150, %172 ]
  %.0.i.i.i = phi i32 [ %155, %152 ], [ %173, %172 ]
  store i32 %.026.i.i.i, ptr %1, align 8, !tbaa !139
  store i32 %.0.i.i.i, ptr %9, align 4, !tbaa !136
  %indvars.iv.next = add nuw nsw i64 %indvars.iv, 1
  %175 = zext i8 %174 to i64
  %176 = icmp samesign ult i64 %indvars.iv.next, %175
  br i1 %176, label %140, label %._crit_edge, !llvm.loop !253

177:                                              ; preds = %put_bits.exit36, %put_bits.exit
  ret void
}